; Function Attrs: nofree nounwind memory(write, argmem: readwrite) uwtable
define void @sqrt_vecf(i32 noundef %0, ptr noundef readonly captures(none) %1, ptr noundef writeonly captures(none) %2) local_unnamed_addr #4 {
  %4 = icmp sgt i32 %0, 0
  br i1 %4, label %.lr.ph.preheader, label %._crit_edge

.lr.ph.preheader:                                 ; preds = %3
  %wide.trip.count = zext nneg i32 %0 to i64
  br label %.lr.ph

.lr.ph:                                           ; preds = %.lr.ph.preheader, %11
  %indvars.iv = phi i64 [ 0, %.lr.ph.preheader ], [ %indvars.iv.next, %11 ]
  %5 = getelementptr inbounds nuw float, ptr %1, i64 %indvars.iv
  %6 = load float, ptr %5, align 4, !tbaa !35
  %7 = fcmp ult float %6, 0.000000e+00
  br i1 %7, label %11, label %8

8:                                                ; preds = %.lr.ph
  %9 = tail call float @sqrtf(float noundef %6) #21, !tbaa !17
  %10 = getelementptr inbounds nuw float, ptr %2, i64 %indvars.iv
  store float %9, ptr %10, align 4, !tbaa !35
  br label %11

11:                                               ; preds = %.lr.ph, %8
  %indvars.iv.next = add nuw nsw i64 %indvars.iv, 1
  %exitcond.not = icmp eq i64 %indvars.iv.next, %wide.trip.count
  br i1 %exitcond.not, label %._crit_edge, label %.lr.ph, !llvm.loop !83

._crit_edge:                                      ; preds = %11, %3
  ret void
}